target datalayout = "e-m:e-p270:32:32-p271:32:32-p272:64:64-i64:64-i128:128-f80:128-n8:16:32:64-S128"
target triple = "x86_64-pc-linux-gnu"

%struct.UriTextRangeStructW = type { ptr, ptr }
%struct.UriUriStructW = type { %struct.UriTextRangeStructW, %struct.UriTextRangeStructW, %struct.UriTextRangeStructW, %struct.UriHostDataStructW, %struct.UriTextRangeStructW, ptr, ptr, %struct.UriTextRangeStructW, %struct.UriTextRangeStructW, i32, i32, ptr }
%struct.UriHostDataStructW = type { ptr, ptr, %struct.UriTextRangeStructW }

; Function Attrs: nounwind uwtable
define i32 @uriRemoveDotSegmentsW(ptr noundef %0, i32 noundef %1, ptr noundef %2) #0 {
  %4 = alloca i32, align 4
  %5 = alloca ptr, align 8
  %6 = alloca i32, align 4
  %7 = alloca ptr, align 8
  store ptr %0, ptr %5, align 8, !tbaa !51
  store i32 %1, ptr %6, align 4, !tbaa !14
  store ptr %2, ptr %7, align 8, !tbaa !16
  %8 = load ptr, ptr %5, align 8, !tbaa !51
  %9 = icmp eq ptr %8, null
  br i1 %9, label %10, label %11

10:                                               ; preds = %3
  store i32 1, ptr %4, align 4
  br label %19

11:                                               ; preds = %3
  %12 = load ptr, ptr %5, align 8, !tbaa !51
  %13 = load i32, ptr %6, align 4, !tbaa !14
  %14 = load ptr, ptr %5, align 8, !tbaa !51
  %15 = getelementptr inbounds nuw %struct.UriUriStructW, ptr %14, i32 0, i32 10
  %16 = load i32, ptr %15, align 4, !tbaa !59
  %17 = load ptr, ptr %7, align 8, !tbaa !16
  %18 = call i32 @uriRemoveDotSegmentsExW(ptr noundef %12, i32 noundef %13, i32 noundef %16, ptr noundef %17)
  store i32 %18, ptr %4, align 4
  br label %19

19:                                               ; preds = %11, %10
  %20 = load i32, ptr %4, align 4
  ret i32 %20
}

; Function Attrs: nounwind uwtable
define i32 @uriRemoveDotSegmentsAbsoluteW(ptr noundef %0, ptr noundef %1) #0 {
  %3 = alloca ptr, align 8
  %4 = alloca ptr, align 8
  %5 = alloca i32, align 4
  store ptr %0, ptr %3, align 8, !tbaa !51
  store ptr %1, ptr %4, align 8, !tbaa !16
  call void @llvm.lifetime.start.p0(i64 4, ptr %5) #5
  store i32 0, ptr %5, align 4, !tbaa !14
  %6 = load ptr, ptr %3, align 8, !tbaa !51
  %7 = load ptr, ptr %4, align 8, !tbaa !16
  %8 = call i32 @uriRemoveDotSegmentsW(ptr noundef %6, i32 noundef 0, ptr noundef %7)
  call void @llvm.lifetime.end.p0(i64 4, ptr %5) #5
  ret i32 %8
}